(dp1
S'ILE'
p2
(dp3
S'HG2'
p4
(S'HG21'
p5
S'HG22'
p6
S'HG23'
p7
tp8
sS'HD1%'
p9
(S'HD1'
p10
S'HD2'
p11
S'HD3'
p12
tp13
sS'QD1'
p14
(g10
g11
g12
tp15
sS'HG'
p16
(S'HG11'
p17
S'HG12'
p18
g5
g6
g7
tp19
sS'HD'
p20
(g10
g11
g12
tp21
sS'QQG'
p22
(g17
g18
g5
g6
g7
tp23
sS'HG1%'
p24
(g17
g18
tp25
sg10
(g10
g11
g12
tp26
sS'HG2%'
p27
(g5
g6
g7
tp28
sS'QG2'
p29
(g5
g6
g7
tp30
sS'QG1'
p31
(g17
g18
tp32
sS'HG1'
p33
(g17
g18
tp34
sS'HD%'
p35
(g10
g11
g12
tp36
sS'QD'
p37
(g10
g11
g12
tp38
sS'HG%'
p39
(g17
g18
g5
g6
g7
tp40
ssS'GLN'
p41
(dp42
S'HE2%'
p43
(S'HE21'
p44
S'HE22'
p45
tp46
sS'QE2'
p47
(g44
g45
tp48
sS'HB'
p49
(S'HB1'
p50
S'HB2'
p51
tp52
sg16
(g33
g4
tp53
sS'HE'
p54
(g44
g45
tp55
sS'HE2'
p56
(g44
g45
tp57
sS'HB%'
p58
(g50
g51
tp59
sS'HE%'
p60
(g44
g45
tp61
sS'QB'
p62
(g50
g51
tp63
sS'QE'
p64
(g44
g45
tp65
sS'QG'
p66
(g33
g4
tp67
sg39
(g33
g4
tp68
ssS'GLY'
p69
(dp70
S'QA'
p71
(S'HA1'
p72
S'HA2'
p73
tp74
sS'HA'
p75
(g72
g73
tp76
sS'HA%'
p77
(g72
g73
tp78
ssS'GLU'
p79
(dp80
g58
(g50
g51
tp81
sg62
(g50
g51
tp82
sg66
(g33
g4
tp83
sg49
(g50
g51
tp84
sg39
(g33
g4
tp85
sg16
(g33
g4
tp86
ssS'CYS'
p87
(dp88
g49
(g50
g51
tp89
sg58
(g50
g51
tp90
sg62
(g50
g51
tp91
ssS'ASP'
p92
(dp93
g49
(g50
g51
tp94
sg58
(g50
g51
tp95
sg62
(g50
g51
tp96
ssS'SER'
p97
(dp98
g49
(g50
g51
tp99
sg58
(g50
g51
tp100
sg62
(g50
g51
tp101
ssS'HSD'
p102
(dp103
g49
(g50
g51
tp104
sg58
(g50
g51
tp105
sg62
(g50
g51
tp106
ssS'HSE'
p107
(dp108
g49
(g50
g51
tp109
sg58
(g50
g51
tp110
sg62
(g50
g51
tp111
ssS'PRO'
p112
(dp113
g58
(g50
g51
tp114
sg35
(g10
g11
tp115
sg62
(g50
g51
tp116
sg37
(g10
g11
tp117
sg66
(g33
g4
tp118
sg49
(g50
g51
tp119
sg39
(g33
g4
tp120
sg16
(g33
g4
tp121
sg20
(g10
g11
tp122
ssS'HSP'
p123
(dp124
g49
(g50
g51
tp125
sg58
(g50
g51
tp126
sg62
(g50
g51
tp127
ssS'ASN'
p128
(dp129
g58
(g50
g51
tp130
sg35
(S'HD21'
p131
S'HD22'
p132
tp133
sS'HD2%'
p134
(g131
g132
tp135
sS'QD2'
p136
(g131
g132
tp137
sg11
(g131
g132
tp138
sg49
(g50
g51
tp139
sg37
(g131
g132
tp140
sg20
(g131
g132
tp141
sg62
(g50
g51
tp142
ssS'VAL'
p143
(dp144
g22
(g17
g18
S'HG13'
p145
g5
g6
g7
tp146
sg29
(g5
g6
g7
tp147
sg24
(g17
g18
g145
tp148
sg66
(g17
g18
g145
g5
g6
g7
tp149
sg27
(g5
g6
g7
tp150
sg39
(g17
g18
g145
g5
g6
g7
tp151
sg4
(g5
g6
g7
tp152
sg16
(g17
g18
g145
g5
g6
g7
tp153
sg31
(g17
g18
g145
tp154
sg33
(g17
g18
g145
tp155
ssS'THR'
p156
(dp157
g58
(g49
tp158
sg27
(g5
g6
g7
tp159
sg4
(g5
g6
g7
tp160
sg29
(g5
g6
g7
tp161
sg62
(g49
tp162
sg49
(g49
tp163
ssS'HIS'
p164
(dp165
g49
(g50
g51
tp166
sg58
(g50
g51
tp167
sg62
(g50
g51
tp168
ssS'TRP'
p169
(dp170
g49
(g50
g51
tp171
sg58
(g50
g51
tp172
sg62
(g50
g51
tp173
ssS'LYS'
p174
(dp175
S'HZ'
p176
(S'HZ1'
p177
S'HZ2'
p178
S'HZ3'
p179
tp180
sg49
(g50
g51
tp181
sg16
(g33
g4
tp182
sg20
(g10
g11
tp183
sg54
(S'HE1'
p184
g56
tp185
sS'HZ%'
p186
(g177
g178
g179
tp187
sg58
(g50
g51
tp188
sS'QZ'
p189
(g177
g178
g179
tp190
sg60
(g184
g56
tp191
sg35
(g10
g11
tp192
sg62
(g50
g51
tp193
sg64
(g184
g56
tp194
sg37
(g10
g11
tp195
sg66
(g33
g4
tp196
sg39
(g33
g4
tp197
ssS'PHE'
p198
(dp199
S'HR'
p200
(g10
g11
g184
g56
g176
tp201
sg49
(g50
g51
tp202
sg20
(g10
g11
tp203
sg54
(g184
g56
tp204
sS'QR'
p205
(g10
g11
g184
g56
g176
tp206
sg58
(g50
g51
tp207
sg60
(g184
g56
tp208
sg35
(g10
g11
tp209
sg62
(g50
g51
tp210
sg64
(g184
g56
tp211
sg37
(g10
g11
tp212
sS'HR%'
p213
(g10
g11
g184
g56
g176
tp214
ssS'ALA'
p215
(dp216
g49
(g50
g51
S'HB3'
p217
tp218
sg58
(g50
g51
g217
tp219
sg62
(g50
g51
g217
tp220
ssS'MET'
p221
(dp222
g58
(g50
g51
tp223
sg62
(g50
g51
tp224
sg64
(g184
g56
S'HE3'
p225
tp226
sg66
(g33
g4
tp227
sg60
(g184
g56
g225
tp228
sg49
(g50
g51
tp229
sg39
(g33
g4
tp230
sg16
(g33
g4
tp231
sg54
(g184
g56
g225
tp232
ssS'LEU'
p233
(dp234
g9
(S'HD11'
p235
S'HD12'
p236
S'HD13'
p237
tp238
sg134
(g131
g132
S'HD23'
p239
tp240
sg136
(g131
g132
g239
tp241
sg14
(g235
g236
g237
tp242
sg49
(g50
g51
tp243
sg20
(g235
g236
g237
g131
g132
g239
tp244
sS'QQD'
p245
(g235
g236
g237
g131
g132
g239
tp246
sg11
(g131
g132
g239
tp247
sg10
(g235
g236
g237
tp248
sg58
(g50
g51
tp249
sg35
(g235
g236
g237
g131
g132
g239
tp250
sg62
(g50
g51
tp251
sg37
(g235
g236
g237
g131
g132
g239
tp252
ssS'ARG'
p253
(dp254
S'QH2'
p255
(S'HH21'
p256
S'HH22'
p257
tp258
sS'HH2'
p259
(g256
g257
tp260
sS'HH1'
p261
(S'HH11'
p262
S'HH12'
p263
tp264
sS'QH1'
p265
(g262
g263
tp266
sg49
(g50
g51
tp267
sg16
(g33
g4
tp268
sg20
(g10
g11
tp269
sS'HH1%'
p270
(g262
g263
tp271
sS'HH2%'
p272
(g256
g257
tp273
sg58
(g50
g51
tp274
sg35
(g10
g11
tp275
sg62
(g50
g51
tp276
sg37
(g10
g11
tp277
sg66
(g33
g4
tp278
sg39
(g33
g4
tp279
ssS'TYR'
p280
(dp281
g200
(g10
g11
g184
g56
tp282
sg49
(g50
g51
tp283
sg20
(g10
g11
tp284
sg54
(g184
g56
tp285
sg205
(g10
g11
g184
g56
tp286
sg58
(g50
g51
tp287
sg60
(g184
g56
tp288
sg35
(g10
g11
tp289
sg62
(g50
g51
tp290
sg64
(g184
g56
tp291
sg37
(g10
g11
tp292
sg213
(g10
g11
g184
g56
tp293
ss.